target datalayout = "e-m:e-p270:32:32-p271:32:32-p272:64:64-i64:64-i128:128-f80:128-n8:16:32:64-S128"
target triple = "x86_64-unknown-linux-gnu"

; Function Attrs: mustprogress uwtable
define void @_ZN8QuantLib14OneFactorModelC2Em(ptr noundef nonnull align 8 dereferenceable(76) %this, ptr noundef %vtt, i64 noundef %nArguments) unnamed_addr #1 align 2 {
entry:
  %this.addr = alloca ptr, align 8
  %vtt.addr = alloca ptr, align 8
  %nArguments.addr = alloca i64, align 8
  store ptr %this, ptr %this.addr, align 8, !tbaa !3
  store ptr %vtt, ptr %vtt.addr, align 8, !tbaa !3
  store i64 %nArguments, ptr %nArguments.addr, align 8, !tbaa !9
  %this1 = load ptr, ptr %this.addr, align 8
  %vtt2 = load ptr, ptr %vtt.addr, align 8
  %0 = load i64, ptr %nArguments.addr, align 8, !tbaa !9
  %1 = getelementptr inbounds ptr, ptr %vtt2, i64 1
  call void @_ZN8QuantLib14ShortRateModelC2Em(ptr noundef nonnull align 8 dereferenceable(76) %this1, ptr noundef %1, i64 noundef %0)
  %2 = load ptr, ptr %vtt2, align 8
  store ptr %2, ptr %this1, align 8, !tbaa !7
  %3 = getelementptr inbounds ptr, ptr %vtt2, i64 7
  %4 = load ptr, ptr %3, align 8
  %vtable = load ptr, ptr %this1, align 8, !tbaa !7
  %vbase.offset.ptr = getelementptr i8, ptr %vtable, i64 -24
  %vbase.offset = load i64, ptr %vbase.offset.ptr, align 8
  %add.ptr = getelementptr inbounds i8, ptr %this1, i64 %vbase.offset
  store ptr %4, ptr %add.ptr, align 8, !tbaa !7
  %5 = getelementptr inbounds ptr, ptr %vtt2, i64 8
  %6 = load ptr, ptr %5, align 8
  %vtable3 = load ptr, ptr %this1, align 8, !tbaa !7
  %vbase.offset.ptr4 = getelementptr i8, ptr %vtable3, i64 -32
  %vbase.offset5 = load i64, ptr %vbase.offset.ptr4, align 8
  %add.ptr6 = getelementptr inbounds i8, ptr %this1, i64 %vbase.offset5
  store ptr %6, ptr %add.ptr6, align 8, !tbaa !7
  ret void
}